target datalayout = "e-m:e-p270:32:32-p271:32:32-p272:64:64-i64:64-i128:128-f80:128-n8:16:32:64-S128"
target triple = "x86_64-pc-linux-gnu"

%struct.Aig_Man_t_ = type { ptr, ptr, ptr, ptr, ptr, ptr, ptr, %struct.Aig_Obj_t_, i32, i32, i32, i32, i32, i32, [7 x i32], i32, ptr, i32, ptr, i32, ptr, i32, i32, i32, ptr, i32, i32, i32, i32, i32, ptr, ptr, i32, ptr, ptr, i32, ptr, ptr, i32, i32, i32, ptr, ptr, ptr, ptr, ptr, ptr, ptr, ptr, ptr, ptr, ptr, ptr, ptr, ptr, i32, ptr, ptr, ptr, ptr, i32, i64, i64, i64, ptr, ptr }
%struct.Aig_Obj_t_ = type { %union.anon, ptr, ptr, i64, i32, i32, %union.anon.0 }
%union.anon = type { ptr }
%union.anon.0 = type { ptr }
%struct.Faig_Man_t_ = type { i32, i32, i32, i32, i32, i32, i32, i32, i32, i32, i32, i32, [0 x i32] }

; Function Attrs: inlinehint nounwind uwtable
define internal i32 @Aig_ManRegNum(ptr noundef %0) #1 {
  %2 = alloca ptr, align 8
  store ptr %0, ptr %2, align 8, !tbaa !3
  %3 = load ptr, ptr %2, align 8, !tbaa !3
  %4 = getelementptr inbounds nuw %struct.Aig_Man_t_, ptr %3, i32 0, i32 8
  %5 = load i32, ptr %4, align 8, !tbaa !38
  ret i32 %5
}

; Function Attrs: inlinehint nounwind uwtable
define internal i32 @Aig_ManCiNum(ptr noundef %0) #1 {
  %2 = alloca ptr, align 8
  store ptr %0, ptr %2, align 8, !tbaa !3
  %3 = load ptr, ptr %2, align 8, !tbaa !3
  %4 = getelementptr inbounds nuw %struct.Aig_Man_t_, ptr %3, i32 0, i32 14
  %5 = getelementptr inbounds [7 x i32], ptr %4, i64 0, i64 2
  %6 = load i32, ptr %5, align 8, !tbaa !22
  ret i32 %6
}

; Function Attrs: inlinehint nounwind uwtable
define internal i32 @Aig_ManCoNum(ptr noundef %0) #1 {
  %2 = alloca ptr, align 8
  store ptr %0, ptr %2, align 8, !tbaa !3
  %3 = load ptr, ptr %2, align 8, !tbaa !3
  %4 = getelementptr inbounds nuw %struct.Aig_Man_t_, ptr %3, i32 0, i32 14
  %5 = getelementptr inbounds [7 x i32], ptr %4, i64 0, i64 3
  %6 = load i32, ptr %5, align 4, !tbaa !22
  ret i32 %6
}

; Function Attrs: inlinehint nounwind uwtable
define internal i32 @Aig_ManNodeNum(ptr noundef %0) #1 {
  %2 = alloca ptr, align 8
  store ptr %0, ptr %2, align 8, !tbaa !3
  %3 = load ptr, ptr %2, align 8, !tbaa !3
  %4 = getelementptr inbounds nuw %struct.Aig_Man_t_, ptr %3, i32 0, i32 14
  %5 = getelementptr inbounds [7 x i32], ptr %4, i64 0, i64 5
  %6 = load i32, ptr %5, align 4, !tbaa !22
  %7 = load ptr, ptr %2, align 8, !tbaa !3
  %8 = getelementptr inbounds nuw %struct.Aig_Man_t_, ptr %7, i32 0, i32 14
  %9 = getelementptr inbounds [7 x i32], ptr %8, i64 0, i64 6
  %10 = load i32, ptr %9, align 8, !tbaa !22
  %11 = add nsw i32 %6, %10
  ret i32 %11
}

; Function Attrs: nounwind uwtable
define ptr @Faig_ManAlloc(ptr noundef %0) #0 {
  %2 = alloca ptr, align 8
  %3 = alloca ptr, align 8
  %4 = alloca i32, align 4
  store ptr %0, ptr %2, align 8, !tbaa !3
  call void @llvm.lifetime.start.p0(i64 8, ptr %3) #9
  call void @llvm.lifetime.start.p0(i64 4, ptr %4) #9
  %5 = load ptr, ptr %2, align 8, !tbaa !3
  %6 = call i32 @Aig_ManNodeNum(ptr noundef %5)
  %7 = mul nsw i32 2, %6
  %8 = load ptr, ptr %2, align 8, !tbaa !3
  %9 = call i32 @Aig_ManCoNum(ptr noundef %8)
  %10 = add nsw i32 %7, %9
  store i32 %10, ptr %4, align 4, !tbaa !22
  %11 = load i32, ptr %4, align 4, !tbaa !22
  %12 = sext i32 %11 to i64
  %13 = mul i64 4, %12
  %14 = add i64 48, %13
  %15 = mul i64 1, %14
  %16 = call noalias ptr @malloc(i64 noundef %15) #10
  store ptr %16, ptr %3, align 8, !tbaa !23
  %17 = load ptr, ptr %3, align 8, !tbaa !23
  call void @llvm.memset.p0.i64(ptr align 4 %17, i8 0, i64 48, i1 false)
  %18 = load ptr, ptr %2, align 8, !tbaa !3
  %19 = call i32 @Aig_ManCiNum(ptr noundef %18)
  %20 = load ptr, ptr %2, align 8, !tbaa !3
  %21 = call i32 @Aig_ManRegNum(ptr noundef %20)
  %22 = sub nsw i32 %19, %21
  %23 = load ptr, ptr %3, align 8, !tbaa !23
  %24 = getelementptr inbounds nuw %struct.Faig_Man_t_, ptr %23, i32 0, i32 0
  store i32 %22, ptr %24, align 4, !tbaa !25
  %25 = load ptr, ptr %2, align 8, !tbaa !3
  %26 = call i32 @Aig_ManCoNum(ptr noundef %25)
  %27 = load ptr, ptr %2, align 8, !tbaa !3
  %28 = call i32 @Aig_ManRegNum(ptr noundef %27)
  %29 = sub nsw i32 %26, %28
  %30 = load ptr, ptr %3, align 8, !tbaa !23
  %31 = getelementptr inbounds nuw %struct.Faig_Man_t_, ptr %30, i32 0, i32 1
  store i32 %29, ptr %31, align 4, !tbaa !27
  %32 = load ptr, ptr %2, align 8, !tbaa !3
  %33 = call i32 @Aig_ManCiNum(ptr noundef %32)
  %34 = load ptr, ptr %3, align 8, !tbaa !23
  %35 = getelementptr inbounds nuw %struct.Faig_Man_t_, ptr %34, i32 0, i32 2
  store i32 %33, ptr %35, align 4, !tbaa !28
  %36 = load ptr, ptr %2, align 8, !tbaa !3
  %37 = call i32 @Aig_ManCoNum(ptr noundef %36)
  %38 = load ptr, ptr %3, align 8, !tbaa !23
  %39 = getelementptr inbounds nuw %struct.Faig_Man_t_, ptr %38, i32 0, i32 3
  store i32 %37, ptr %39, align 4, !tbaa !29
  %40 = load ptr, ptr %2, align 8, !tbaa !3
  %41 = call i32 @Aig_ManRegNum(ptr noundef %40)
  %42 = load ptr, ptr %3, align 8, !tbaa !23
  %43 = getelementptr inbounds nuw %struct.Faig_Man_t_, ptr %42, i32 0, i32 4
  store i32 %41, ptr %43, align 4, !tbaa !30
  %44 = load ptr, ptr %2, align 8, !tbaa !3
  %45 = call i32 @Aig_ManNodeNum(ptr noundef %44)
  %46 = load ptr, ptr %3, align 8, !tbaa !23
  %47 = getelementptr inbounds nuw %struct.Faig_Man_t_, ptr %46, i32 0, i32 5
  store i32 %45, ptr %47, align 4, !tbaa !31
  %48 = load ptr, ptr %3, align 8, !tbaa !23
  %49 = getelementptr inbounds nuw %struct.Faig_Man_t_, ptr %48, i32 0, i32 0
  %50 = load i32, ptr %49, align 4, !tbaa !25
  %51 = add nsw i32 %50, 1
  %52 = load ptr, ptr %3, align 8, !tbaa !23
  %53 = getelementptr inbounds nuw %struct.Faig_Man_t_, ptr %52, i32 0, i32 6
  store i32 %51, ptr %53, align 4, !tbaa !32
  %54 = load ptr, ptr %3, align 8, !tbaa !23
  %55 = getelementptr inbounds nuw %struct.Faig_Man_t_, ptr %54, i32 0, i32 2
  %56 = load i32, ptr %55, align 4, !tbaa !28
  %57 = add nsw i32 %56, 1
  %58 = load ptr, ptr %3, align 8, !tbaa !23
  %59 = getelementptr inbounds nuw %struct.Faig_Man_t_, ptr %58, i32 0, i32 7
  store i32 %57, ptr %59, align 4, !tbaa !33
  %60 = load ptr, ptr %3, align 8, !tbaa !23
  %61 = getelementptr inbounds nuw %struct.Faig_Man_t_, ptr %60, i32 0, i32 2
  %62 = load i32, ptr %61, align 4, !tbaa !28
  %63 = load ptr, ptr %3, align 8, !tbaa !23
  %64 = getelementptr inbounds nuw %struct.Faig_Man_t_, ptr %63, i32 0, i32 5
  %65 = load i32, ptr %64, align 4, !tbaa !31
  %66 = add nsw i32 %62, %65
  %67 = add nsw i32 %66, 1
  %68 = load ptr, ptr %3, align 8, !tbaa !23
  %69 = getelementptr inbounds nuw %struct.Faig_Man_t_, ptr %68, i32 0, i32 8
  store i32 %67, ptr %69, align 4, !tbaa !34
  %70 = load ptr, ptr %3, align 8, !tbaa !23
  %71 = getelementptr inbounds nuw %struct.Faig_Man_t_, ptr %70, i32 0, i32 2
  %72 = load i32, ptr %71, align 4, !tbaa !28
  %73 = load ptr, ptr %3, align 8, !tbaa !23
  %74 = getelementptr inbounds nuw %struct.Faig_Man_t_, ptr %73, i32 0, i32 5
  %75 = load i32, ptr %74, align 4, !tbaa !31
  %76 = add nsw i32 %72, %75
  %77 = load ptr, ptr %3, align 8, !tbaa !23
  %78 = getelementptr inbounds nuw %struct.Faig_Man_t_, ptr %77, i32 0, i32 1
  %79 = load i32, ptr %78, align 4, !tbaa !27
  %80 = add nsw i32 %76, %79
  %81 = add nsw i32 %80, 1
  %82 = load ptr, ptr %3, align 8, !tbaa !23
  %83 = getelementptr inbounds nuw %struct.Faig_Man_t_, ptr %82, i32 0, i32 9
  store i32 %81, ptr %83, align 4, !tbaa !35
  %84 = load ptr, ptr %3, align 8, !tbaa !23
  %85 = getelementptr inbounds nuw %struct.Faig_Man_t_, ptr %84, i32 0, i32 2
  %86 = load i32, ptr %85, align 4, !tbaa !28
  %87 = load ptr, ptr %3, align 8, !tbaa !23
  %88 = getelementptr inbounds nuw %struct.Faig_Man_t_, ptr %87, i32 0, i32 5
  %89 = load i32, ptr %88, align 4, !tbaa !31
  %90 = add nsw i32 %86, %89
  %91 = load ptr, ptr %3, align 8, !tbaa !23
  %92 = getelementptr inbounds nuw %struct.Faig_Man_t_, ptr %91, i32 0, i32 3
  %93 = load i32, ptr %92, align 4, !tbaa !29
  %94 = add nsw i32 %90, %93
  %95 = add nsw i32 %94, 1
  %96 = load ptr, ptr %3, align 8, !tbaa !23
  %97 = getelementptr inbounds nuw %struct.Faig_Man_t_, ptr %96, i32 0, i32 10
  store i32 %95, ptr %97, align 4, !tbaa !36
  %98 = load i32, ptr %4, align 4, !tbaa !22
  %99 = load ptr, ptr %3, align 8, !tbaa !23
  %100 = getelementptr inbounds nuw %struct.Faig_Man_t_, ptr %99, i32 0, i32 11
  store i32 %98, ptr %100, align 4, !tbaa !37
  %101 = load ptr, ptr %3, align 8, !tbaa !23
  call void @llvm.lifetime.end.p0(i64 4, ptr %4) #9
  call void @llvm.lifetime.end.p0(i64 8, ptr %3) #9
  ret ptr %101
}