; Function Attrs: mustprogress nofree nounwind willreturn memory(write, argmem: read, inaccessiblemem: readwrite) uwtable
define noalias noundef ptr @Faig_ManAlloc(ptr noundef readonly captures(none) %0) local_unnamed_addr #1 {
  %2 = getelementptr i8, ptr %0, i64 148
  %.val38 = load i32, ptr %2, align 4, !tbaa !23
  %3 = getelementptr i8, ptr %0, i64 152
  %.val39 = load i32, ptr %3, align 8, !tbaa !23
  %4 = add nsw i32 %.val39, %.val38
  %5 = shl nsw i32 %4, 1
  %6 = getelementptr i8, ptr %0, i64 140
  %.val42 = load i32, ptr %6, align 4, !tbaa !23
  %7 = add nsw i32 %5, %.val42
  %8 = sext i32 %7 to i64
  %9 = shl nsw i64 %8, 2
  %10 = add nsw i64 %9, 48
  %11 = tail call noalias ptr @malloc(i64 noundef %10) #14
  %12 = getelementptr i8, ptr %0, i64 136
  %.val35 = load i32, ptr %12, align 8, !tbaa !23
  %13 = getelementptr i8, ptr %0, i64 104
  %.val43 = load i32, ptr %13, align 8, !tbaa !24
  %14 = sub nsw i32 %.val35, %.val43
  store i32 %14, ptr %11, align 4, !tbaa !25
  %15 = sub nsw i32 %.val42, %.val43
  %16 = getelementptr inbounds nuw i8, ptr %11, i64 4
  store i32 %15, ptr %16, align 4, !tbaa !27
  %17 = getelementptr inbounds nuw i8, ptr %11, i64 8
  store i32 %.val35, ptr %17, align 4, !tbaa !28
  %18 = getelementptr inbounds nuw i8, ptr %11, i64 12
  store i32 %.val42, ptr %18, align 4, !tbaa !29
  %19 = getelementptr inbounds nuw i8, ptr %11, i64 16
  store i32 %.val43, ptr %19, align 4, !tbaa !30
  %20 = getelementptr inbounds nuw i8, ptr %11, i64 20
  store i32 %4, ptr %20, align 4, !tbaa !31
  %21 = add nsw i32 %14, 1
  %22 = getelementptr inbounds nuw i8, ptr %11, i64 24
  store i32 %21, ptr %22, align 4, !tbaa !32
  %23 = add nsw i32 %.val35, 1
  %24 = getelementptr inbounds nuw i8, ptr %11, i64 28
  store i32 %23, ptr %24, align 4, !tbaa !33
  %25 = add nsw i32 %.val35, %4
  %26 = add i32 %25, 1
  %27 = getelementptr inbounds nuw i8, ptr %11, i64 32
  store i32 %26, ptr %27, align 4, !tbaa !34
  %28 = add i32 %26, %15
  %29 = getelementptr inbounds nuw i8, ptr %11, i64 36
  store i32 %28, ptr %29, align 4, !tbaa !35
  %30 = add i32 %26, %.val42
  %31 = getelementptr inbounds nuw i8, ptr %11, i64 40
  store i32 %30, ptr %31, align 4, !tbaa !36
  %32 = getelementptr inbounds nuw i8, ptr %11, i64 44
  store i32 %7, ptr %32, align 4, !tbaa !37
  ret ptr %11
}